(dp0
S'y'
p1
(lp2
F-5.438898480524221
aF-5.350771943879096
aF-5.246837832675634
aF-5.145392810874387
aF-5.02495931688426
aF-4.973017729384324
aF-4.961655368227559
aF-4.911380914399275
aF-4.874455236192577
aF-4.827969778907796
aF-4.783910021819177
aF-4.729328796550734
aF-4.696406967939725
aF-4.634982014224525
aF-4.582055604750628
aF-4.44857429795754
aF-4.237526507922675
aF-4.076866923307872
aF-3.9384892691776217
aF-3.8201785730873605
aF-3.8093195170585687
aF-3.816167558244992
aF-3.7929058579155184
aF-3.7444774991192897
aF-3.698270865821268
aF-3.6675619999522375
aF-3.6102595977148475
aF-3.561220658402493
aF-3.5244098992584068
aF-3.435845657030789
aF-3.404139635452341
aF-3.3606734304927044
aF-3.314180034924832
aF-3.2756759093624863
aF-3.243647216181856
aF-3.2072631309029713
aF-3.152673068192517
aF-3.1059236933965453
aF-3.053928987609138
aF-3.0038163010022583
aF-2.9631570602077946
aF-2.891664571664096
aF-2.7747890711038963
aF-2.628299815524541
aF-2.467232692207051
aF-2.2699503888767056
aF-2.0695465585973665
aF-1.8761098265427965
aF-1.675018194649116
aF-1.5015347799759295
aF-1.3128390985867764
aF-1.138731536670515
aF-0.9563501244620012
aF-0.7716025919458662
aF-0.5894507122330381
aF-0.40532948363206067
aF-0.19932965022721216
aF0.018176970277286486
aF0.1647463622086187
aF0.25678816970341245
aF0.3343890326390886
aF0.36197498512182147
aF0.3547534255686733
aF0.3120058832953161
aF0.3350059716530325
aF0.37122582280333827
aF0.3953399849623098
aF0.44605714427696697
aF0.48594370114398
aF0.5413032036111609
aF0.5966679912961323
aF0.6442976102145543
aF0.6974605210095026
aF0.7293999484613982
aF0.7842894675624938
aF0.8265770555987286
aF0.8737962833164721
aF0.9199727274292568
aF0.965447402770149
aF1.0157972812855771
aF1.0339437191689544
aF1.0657217356259192
aF1.1246557409577562
aF1.1771110659652173
aF1.3318352412015475
aF1.3473320570662137
aF1.3857889780096961
aF1.3912833308546801
aF1.277097709078996
aF1.1325086605483996
aF0.9315608471671553
aF0.7310212957183042
aF0.5111520060913852
aF0.30565861106790315
aF0.10424345360832188
aF-0.15226270367067762
aF-0.38099260470237883
aF-0.6285078119346261
aF-0.8550093685916584
aF-1.059685469353135
aF-1.2344684385443774
aF-1.1173162908845633
aF-1.101259584156316
aF-1.053544604177377
aF-1.0685072789566057
aF-1.0938876568917086
aF-1.1751206114455561
aF-1.2355373660491829
aF-1.294315471353185
aF-1.3035884382310554
aF-1.1813683495234928
aF-1.0115094240279632
aF-0.8435756214413654
aF-0.669578561613152
aF-0.45331084380236764
aF-0.2067689321066517
aF-0.016644589906456453
aF0.22276944930509757
aF0.467201911983846
aF0.6688253432439195
aF0.8574779835020934
aF1.0575590603534568
aF1.2609194276509266
aF1.465128389433521
aF1.7043462004707521
aF1.9134227651212656
aF2.1014301707781904
aF2.289249058826546
aF2.4344983109475304
aF2.524154635912124
aF2.5210033642755203
aF2.4656410933208246
aF2.3575592610015716
aF2.1882090336311357
aF2.135484139054208
aF2.076897243454118
aF2.016162078418308
aF1.9633044304627338
aF1.8803852524493374
aF1.8136731998440405
aF1.9234420712095899
aF1.92679821463949
aF2.0570164639596253
aF2.2782134466934494
aF2.4877595794307954
aF2.727600694110188
aF2.953488733286438
aF3.18749654277304
aF3.396491796917152
aF3.539728689747454
aF3.599643918357356
aF3.5890548819516646
aF3.4994075554564947
aF3.399763879143361
aF3.2613129988785996
aF3.088035228950803
aF2.8467484581715112
aF2.6250163568294047
aF2.453687565486141
aF2.34491038850332
aF2.286903542794782
aF2.2871266658249185
aF2.326380248886111
aF2.4408056393370083
aF2.591638979915931
aF2.7432872286094305
aF2.855857783436111
aF2.8783139001089175
aF2.7887039255815775
aF2.6507260887485247
aF2.44048154527564
aF2.2391972093780037
aF2.033518281894878
aF1.835960347333156
aF1.6434835579768006
aF1.479120394730045
aF1.2504548358877763
aF1.0130331779996418
aF0.7630627885221024
aF0.5005018281846159
aF0.24724474414678177
aF0.09139860787974374
aF0.027439351165863712
aF0.01532857252593356
aF0.027295352965219344
aF0.06570110852574018
aF0.10698377378138613
aF0.19614096512762824
aF0.34485240712104925
aF0.5399880500631751
aF0.7505268322065977
aF0.9671483985652074
aF1.140682354082287
aF1.2256971331481665
aF1.245500449856566
aF1.2160593089826595
aF1.170092269531029
aF1.1083041578198856
aF1.0178070398006458
aF0.9618767065795444
aF0.9010157899292022
aF0.8298038312240106
aF0.8012190455297086
aF0.7546368779801478
aF0.67425011806833
aF0.6164728399506609
aF0.6540907951940893
aF0.5314577706400243
aF0.5473773726812352
aF0.44655323171323946
aF0.36391755211944954
aF0.11093361539127233
aF0.1484914167068796
aF0.13032520923983792
aF0.08934781609358922
aF0.1082389429888293
aF0.1825202290374177
aF0.3708635790861017
aF0.6259892797074951
aF0.7930434840535536
aF0.8345432150760441
aF0.7712309419241228
aF0.6528713527447687
aF0.46454200733344386
aF0.26017129473671563
aF-0.04268386581845629
aF-0.32656036612229133
aF-0.635288526840422
aF-0.9229960540409801
aF-1.1563445591800625
aF-1.344734390872091
aF-1.5082070054403025
aF-1.6039316590438628
aF-1.6295003365960095
aF-1.5544868240354761
aF-1.425713008528707
aF-1.2285882001905377
aF-1.0089424873380946
aF-0.6985769987916863
aF-0.3790579126875988
aF-0.0667165051124865
aF0.2047104600311087
aF0.4216115241253835
aF0.5841516977999284
aF0.7143639638328549
aF0.7972110154296947
aF0.8035472825958996
aF0.7441250561164905
aF0.6392273057501567
aF0.45100279196306037
aF0.188145187739444
aF-0.10794508370202749
aF-0.3770079994906421
aF-0.6779451909312115
aF-0.9493036689045891
aF-1.2730010620871632
aF-1.5916425358394468
aF-1.9119518224410328
aF-2.2408570034755426
aF-2.5336320691109298
aF-2.852698840732166
aF-3.1501709622544114
aF-3.4595720630875206
aF-3.7743208899352303
aF-4.067109143453858
aF-4.38638100518135
aF-4.67286352698483
aF-4.991176039014663
aF-5.282031746549208
aF-5.581165048216572
aF-5.89231895694293
aF-6.137199142082549
aF-6.282368755964178
aF-6.3278182056019805
aF-6.29118651669497
aF-6.1800771204772555
aF-6.050099320625385
aF-5.975579190378111
aF-5.942363621449118
aF-5.8769256697579895
aF-5.812268411627393
aF-5.756561390838296
aF-5.747710027562755
aF-5.740401819239638
aF-5.724559364377816
aF-5.747824429094368
aF-5.750728379261506
aF-5.750341198954224
asS'x'
p3
(lp4
F-5.874420828609747
aF-5.4725034854469214
aF-5.107055704734808
aF-4.674552329051896
aF-4.322403170708665
aF-4.139235576095409
aF-3.8963495134998265
aF-3.6983638603933624
aF-3.4952084302307513
aF-3.285570390418439
aF-3.079003270902457
aF-2.8742999651592562
aF-2.6724922276238754
aF-2.422284973711892
aF-2.226374878953311
aF-2.0798806813353243
aF-1.9362804889055028
aF-1.7955389567238154
aF-1.65776845560125
aF-1.4816030961704119
aF-1.2635309157764905
aF-1.0717818493577393
aF-0.8663381224009203
aF-0.66716323080216
aF-0.4585148215791097
aF-0.260632073871518
aF-0.05949004508966205
aF0.12808387916013686
aF0.2855636664155252
aF0.5632399488436093
aF0.7769009084150671
aF0.9499898202536681
aF1.156333039120403
aF1.3412123166255885
aF1.5055418699383072
aF1.7182595570396408
aF1.9267157541470148
aF2.1112931316299033
aF2.318965297149383
aF2.5129994187398967
aF2.651983583065137
aF2.8204733842735443
aF2.962194182714775
aF3.116470982079065
aF3.226026159146363
aF3.27916805152098
aF3.3108131570896138
aF3.345804887453088
aF3.2935097118842798
aF3.251029076870985
aF3.1612281603964085
aF3.0867844232551356
aF3.051748640364208
aF2.990777692218261
aF2.9433402583442803
aF2.9233753823445863
aF2.920148747015636
aF3.011213536680483
aF3.1589089647027677
aF3.3007182942696396
aF3.5009867095256197
aF3.6685354957753535
aF3.857616849242195
aF4.038240768645322
aF4.190728025358217
aF4.3642458632651575
aF4.544408171668625
aF4.729335621278697
aF4.91241842485794
aF5.081603959656139
aF5.290556991679633
aF5.478173789663407
aF5.691424880434903
aF5.854756171701554
aF6.030336599887036
aF6.211264578990935
aF6.391977584567613
aF6.565215731573225
aF6.776654020872952
aF6.9630747629225365
aF7.133102421335712
aF7.337900888477208
aF7.51120899922476
aF7.677641526928348
aF8.079381551625461
aF8.246557914010488
aF8.43575999361162
aF8.64645784305993
aF8.863071350562214
aF9.011695793553749
aF9.12273126958665
aF9.161773726972037
aF9.14668245706395
aF9.111966619455822
aF9.170117450951176
aF9.235009549476139
aF9.24577191789711
aF9.230225929459534
aF8.961298708185945
aF8.52952484985151
aF8.109868814514732
aF8.462286608721252
aF8.320153318321701
aF8.131326829430442
aF7.920531360228868
aF7.787120372985479
aF7.511759616506559
aF7.257377848010307
aF7.046962770044853
aF6.804702925908625
aF6.644745841058651
aF6.480193336479324
aF6.384123569941341
aF6.246508681038483
aF6.262616708974473
aF6.2979484607754515
aF6.340125583886049
aF6.2515006497989845
aF6.218495162907448
aF6.160313302168664
aF6.117454002941994
aF6.047358218445115
aF5.97448400331286
aF5.885553782394801
aF5.813117842144893
aF5.770987601482092
aF5.707790195717097
aF5.611898080887789
aF5.429652688278001
aF5.186026362007215
aF4.945935011751558
aF4.732705724571559
aF4.543201379613308
aF4.349244796672913
aF4.181545421795057
aF3.984510775776741
aF3.7869514581712327
aF3.5796342124709444
aF3.3135687542685446
aF3.09036042758348
aF2.9483005509360503
aF2.618237518778546
aF2.3632279729046015
aF2.268669590987688
aF2.153990409927312
aF2.0701288165027947
aF2.094699619761032
aF2.075332732111253
aF2.007943100410655
aF1.8250697691050277
aF1.489583949625457
aF1.2842682800861756
aF1.0856411415528964
aF0.8980149484452902
aF0.7577741965189038
aF0.6823267539520419
aF0.6527000993465233
aF0.5773688769801666
aF0.4236087355469138
aF0.2339254233425887
aF-0.015308020756464202
aF-0.23600396133725
aF-0.4973712710608833
aF-0.6976132288283701
aF-0.8783497107101024
aF-1.037190166742242
aF-1.2229654620658934
aF-1.4622746970380778
aF-1.6592312308615256
aF-1.8046366153782802
aF-1.9438546910201904
aF-1.998378307644856
aF-1.987261403968473
aF-1.9497892906904593
aF-1.8424236164087517
aF-1.766354302276202
aF-1.719031080651673
aF-1.6845730055940074
aF-1.6473143321252781
aF-1.6706298128715584
aF-1.80941923220397
aF-1.9980808449511844
aF-2.166785421440471
aF-2.406352824900061
aF-2.6198084688422476
aF-2.878754126168248
aF-3.119476500599765
aF-3.3379191698660824
aF-3.5019168067286826
aF-3.61228030462924
aF-3.6706813107590373
aF-3.672154616249496
aF-3.747789614712751
aF-3.9701577707709577
aF-4.168660351511179
aF-4.362570218240506
aF-4.580770544072088
aF-4.741496243974306
aF-4.951702177621295
aF-5.140539764166878
aF-5.343517072239815
aF-5.54742833217743
aF-5.771921119596851
aF-5.998823464787038
aF-6.230667511138303
aF-6.44715995396294
aF-6.604594610180563
aF-6.683557332951603
aF-6.793283890138055
aF-7.189604707304016
aF-7.527857304741049
aF-7.89095947836403
aF-8.278087844272449
aF-8.363258192693072
aF-8.624045960247296
aF-8.8491175888254
aF-9.102023894242887
aF-9.267399716828074
aF-9.419723779930255
aF-9.680778864728211
aF-10.026410375727476
aF-10.339487888385557
aF-10.585154436209047
aF-10.803114503356221
aF-10.990206148975407
aF-11.0854018825298
aF-11.14437501148599
aF-11.128333207620189
aF-11.053135958082192
aF-10.91603531717708
aF-10.694918116848566
aF-10.440855062573377
aF-10.142936623058988
aF-9.874877446703312
aF-9.57029649984613
aF-9.306046969317107
aF-9.082530622769127
aF-8.9148218698591
aF-8.77261114477376
aF-8.741071164745296
aF-8.773560862392932
aF-8.895917428181988
aF-9.049928035317757
aF-9.275484066962616
aF-9.518397582030143
aF-9.789233946218829
aF-10.097551434752813
aF-10.382823530513384
aF-10.62194229642368
aF-10.830021476353918
aF-11.007343068950767
aF-11.111218425847872
aF-11.198450986590228
aF-11.231941008209885
aF-11.248411714160424
aF-11.271518868584712
aF-11.177185757669386
aF-11.088659126822348
aF-11.018307265502571
aF-10.958671873128687
aF-10.899620961610184
aF-10.816275444842857
aF-10.768800777911373
aF-10.689341390016637
aF-10.602842314862064
aF-10.56790458037761
aF-10.493373179631643
aF-10.427293449073918
aF-10.373213684387517
aF-10.284335428330659
aF-10.231064718877134
aF-10.129107981786722
aF-9.8615600452795
aF-9.59216403795317
aF-9.284764984641683
aF-9.034151445456958
aF-8.803183447942853
aF-8.555931453277484
aF-8.308933251057017
aF-8.01403654190969
aF-7.706445177796638
aF-7.451882184324865
aF-7.411989099424188
aF-7.375629653829386
aF-7.376048302151323
aF-7.368840767614557
aF-7.372594016995711
aF-7.367219119774718
asS'yaw'
p5
(lp6
F-2.924563256260054
aF-2.948069336446719
aF-2.9269761816715953
aF-2.917561598667018
aF-2.912413542900488
aF-2.9125458878302415
aF-2.914029565935241
aF-2.902986926169172
aF-2.912571874068213
aF-2.9110206393750904
aF-2.9154775285679935
aF-2.919197792389441
aF-2.9191334414008927
aF-2.911646524273024
aF-2.8825881997344127
aF-2.7504291608303166
aF-2.5217026283324264
aF-2.4602927028266026
aF-2.449416242179759
aF-2.4863670069744495
aF-2.664462496346747
aF-2.79983706039841
aF-2.8711309209108626
aF-2.8955540141447953
aF-2.923340920414903
aF-2.9266418286997404
aF-2.9206772448266447
aF-2.91731910396091
aF-2.910575485849221
aF-2.915194663458129
aF-2.932589391364378
aF-2.9320254067847413
aF-2.9309851454441205
aF-2.9072481012385127
aF-2.9298201751016766
aF-2.924294985841599
aF-2.9291574314790094
aF-2.910268089149788
aF-2.9142497242118472
aF-2.90652464020659
aF-2.8950976658082
aF-2.82282124719434
aF-2.7162494079544195
aF-2.594071051422475
aF-2.4724316059582234
aF-2.284426698249533
aF-2.1075171726756374
aF-1.9989088773787993
aF-1.8083687461330886
aF-1.6779114997028444
aF-1.5329068151963383
aF-1.4156577735840266
aF-1.3953650786916405
aF-1.3765578951464768
aF-1.3706975260363958
aF-1.3754830220015346
aF-1.4503479930083656
aF-1.6216950153874754
aF-1.8393325338679096
aF-2.0040730202884283
aF-2.234488622826853
aF-2.415546400163207
aF-2.606706761878315
aF-2.7947778161774095
aF-2.835982854288674
aF-2.8763115860574056
aF-2.8860672446840536
aF-2.907644882025876
aF-2.8966849088677513
aF-2.887265759706629
aF-2.882240690189556
aF-2.878528089749506
aF-2.8697829614771706
aF-2.911950659506546
aF-2.904207563519305
aF-2.892283493923953
aF-2.895501135269392
aF-2.87335226267988
aF-2.8867755697590454
aF-2.899805045260409
aF-2.9003861101962807
aF-2.910382545548929
aF-2.9132761059822063
aF-2.9048875750335608
aF-2.8851137206542234
aF-2.888952166241511
aF-2.9096854695995127
aF-2.9773209954106674
aF3.073841207549794
aF2.8393319962229255
aF2.591053422146224
aF2.3908634435242466
aF2.139145556626683
aF1.9164097214781377
aF1.8853918223210153
aF1.842894956276095
aF1.803300789247622
aF1.6830841189529278
aF1.4303129531267103
aF1.1896939107513518
aF0.99004745865788
aF0.7556034984704506
aF0.5328160300906004
aF0.3026064951744554
aF0.21042537718185408
aF0.2707656201539915
aF0.24936719334862553
aF0.23945555401181245
aF0.2293643505977414
aF0.16277064997219703
aF-0.03242026405885715
aF-0.28021586926137404
aF-0.5116894051233768
aF-0.7142328547992148
aF-0.9131846031287659
aF-1.1785527012865604
aF-1.3064483291643196
aF-1.3125513019537647
aF-1.328681163486416
aF-1.3184101803546924
aF-1.3312454902174786
aF-1.3229800028376228
aF-1.3118292590350524
aF-1.251515631995712
aF-1.2719418312833284
aF-1.2656316450125726
aF-1.2636869752789277
aF-1.2276823029826738
aF-1.0301750827326384
aF-0.8035506682695289
aF-0.5456281559818589
aF-0.2821183343471505
aF-0.03388660216407528
aF0.2110520655065722
aF0.22938028986114037
aF0.23659195816688075
aF0.26378762287474095
aF0.2689894200768573
aF0.26833852129686564
aF0.27286477912070556
aF0.25879986666373145
aF0.13511042545785437
aF-0.11500796822035401
aF-0.3560506148456458
aF-0.6103030835636719
aF-0.888591103033337
aF-1.1302461849211438
aF-1.2136318688441978
aF-1.2174718763964085
aF-1.0211710546910895
aF-0.7325281582558179
aF-0.4812063452184283
aF-0.244898112619337
aF0.05697770662342584
aF0.31867272695521254
aF0.5698547520371612
aF0.8662249730372219
aF0.9536301466968335
aF0.9406680125841393
aF0.789561114435317
aF0.5807802536809377
aF0.3739117311903144
aF0.17541489761269216
aF-0.02706216697042452
aF-0.29764862585070706
aF-0.4324840800310744
aF-0.46736123082408204
aF-0.31455764036170875
aF-0.06457811042542883
aF0.17455973888084841
aF0.4660591412766737
aF0.7265795106094532
aF0.991636718241191
aF1.275526465078657
aF1.520023163456493
aF1.629261943212725
aF1.6804515927444785
aF1.7077770985392142
aF1.7044816247226586
aF1.5759835448355937
aF1.3763216236714648
aF1.128499069358504
aF0.91635075464327
aF0.6829981585364397
aF0.4505070128028407
aF0.25068682312089163
aF0.08143654000463574
aF-0.05874230893957089
aF-0.2820696087817792
aF-0.518577115080463
aF-0.7640219199801463
aF-1.0090443155283206
aF-1.041226588033992
aF-0.8275911255040636
aF-0.6041881677620445
aF-0.38367221737469803
aF-0.1984051683505004
aF-0.05320439306063162
aF0.10237990965183079
aF0.15257646492208823
aF0.17479322669023659
aF0.20337594239089346
aF0.2102913338131345
aF0.21984053243787544
aF0.22098619783479495
aF0.22251800506472616
aF0.2177902216997605
aF0.2458734841197126
aF0.25648173723409173
aF0.24416367483681814
aF0.23948400917742133
aF0.37447234410673885
aF0.23759247309572573
aF0.22072244813179093
aF0.1644917548496885
aF0.08520949570978642
aF-0.05627972824104388
aF-0.34051647992307954
aF-0.5849748552973874
aF-0.5914701163684145
aF-0.3864093096610271
aF-0.12734198302092942
aF0.09879982366679219
aF0.351269895409992
aF0.6047318528301185
aF0.8777352503963476
aF1.1048722806693438
aF1.3269143637770138
aF1.5431440746372753
aF1.7601408664733935
aF2.0125006884983887
aF2.256778945384959
aF2.473221101941807
aF2.7064180148661428
aF3.0009898681131473
aF-2.980802345412608
aF-2.7328064224265236
aF-2.5165776980394896
aF-2.312248035634522
aF-2.0068961675993684
aF-1.7648590805112596
aF-1.5133412146698488
aF-1.3062232708040793
aF-1.0491198080249267
aF-0.8198314301573407
aF-0.5967675073763097
aF-0.3534009418769487
aF-0.09143127442777833
aF0.12049584830386853
aF0.379895553852536
aF0.6297711900076227
aF0.8721324368486819
aF1.0542445254589579
aF1.2272821475094402
aF1.3270738822924206
aF1.4246843577555444
aF1.6022668436581897
aF1.7264694914746044
aF1.7491142741017824
aF1.776299513060188
aF1.7591932247638202
aF1.753562239592351
aF1.7740272164880115
aF1.7780582358613533
aF1.7880665586818576
aF1.7565204797667164
aF1.768003924567032
aF1.7951661391200557
aF1.8021955938527552
aF1.7921446545054782
aF1.7930424234949076
aF1.8499596498308366
aF2.200974655044521
aF2.5114250331616996
aF2.8537691547393615
aF3.0573941476169675
aF-3.037253571128776
aF-2.9958469929461886
aF-2.9673918690468364
aF-2.9621845787515357
aF-2.9475349390418217
aF-2.9390377317963927
aF-2.933244592140054
aF-2.9366248794736296
aF-2.912466151232796
aF-2.93944973040233
aF-2.9376869736804547
aF-2.939556903864678
as.